Certificate:
    Data:
        Version: 3 (0x2)
        Serial Number: 1 (0x1)
    Signature Algorithm: sha256WithRSAEncryption
        Issuer: C=SE, ST=Vastmanland, O=rodingen
        Validity
            Not Before: May  9 10:21:08 2015 GMT
            Not After : May  8 10:21:08 2016 GMT
        Subject: C=SE, ST=Vastmanland, O=rodingen
        Subject Public Key Info:
            Public Key Algorithm: rsaEncryption
                Public-Key: (2048 bit)
                Modulus:
                    00:d3:a1:fa:ac:3a:66:9c:05:92:49:ec:30:e9:47:
                    6b:4f:f8:2d:b0:6a:9e:58:f8:59:55:eb:00:14:12:
                    f0:62:88:f2:1e:76:f4:64:7d:77:54:f7:5a:79:86:
                    89:dd:9f:90:78:48:d0:c4:e3:c6:42:0d:8c:e2:9c:
                    77:9d:46:f8:dc:46:52:9e:6c:f3:8b:ab:ee:cb:9a:
                    32:75:32:23:bf:e2:d6:6e:5a:fe:1a:77:48:40:09:
                    b5:11:74:47:fe:e6:d9:7f:c5:cc:29:92:77:05:e3:
                    2b:ce:87:ae:38:2c:24:33:5b:b1:fa:00:c6:56:cd:
                    2d:ef:5f:4f:f5:5d:06:e7:61:7e:d3:2c:b8:25:0b:
                    e2:b3:af:a8:37:f0:92:a2:ad:22:8e:a3:ee:2e:98:
                    48:a5:12:56:2f:f4:55:41:9f:23:6f:c2:54:95:aa:
                    ab:f8:0e:c7:7d:a5:f0:a9:26:a2:a7:41:61:88:a6:
                    53:d9:61:e8:aa:10:ec:08:47:c3:91:fd:50:6d:ee:
                    e4:0a:9b:be:89:db:7e:c9:ec:fe:55:9d:49:67:bf:
                    1d:75:54:5a:6f:7c:2d:db:2c:22:ba:b1:eb:6a:14:
                    c5:12:ec:ce:a5:74:e9:19:d4:85:c2:d9:87:6c:a2:
                    20:fa:43:9f:2e:56:5c:eb:c2:68:02:1e:61:2f:e9:
                    f6:5f
                Exponent: 65537 (0x10001)
        X509v3 extensions:
            X509v3 Basic Constraints: 
                CA:FALSE
            Netscape Comment: 
                OpenSSL Generated Certificate
            X509v3 Subject Key Identifier: 
                9C:0D:7A:B4:F7:79:7C:C8:9E:A1:CE:C0:D2:5E:9E:68:92:54:94:55
            X509v3 Authority Key Identifier: 
                keyid:97:BB:3C:3A:AC:62:9E:7B:BC:58:FA:C8:66:88:6B:FF:B4:2A:18:76

    Signature Algorithm: sha256WithRSAEncryption
         2d:22:6b:ec:10:a8:37:3a:07:5a:04:5b:51:dc:ec:86:74:c4:
         ea:51:1a:90:3a:5e:c6:e2:31:29:9e:b4:e0:13:f7:80:37:57:
         5d:5f:f8:53:1c:3d:1d:d3:f7:4c:61:aa:94:c7:d4:0b:de:fd:
         bf:03:d7:fe:8a:bd:9a:62:af:8a:3f:cf:58:2e:18:a0:a8:6e:
         34:81:e5:40:ab:58:8b:55:94:59:09:ae:51:a9:80:a9:b1:d8:
         5f:62:73:37:f2:33:0b:b1:7d:78:e4:37:d6:4a:a8:6b:5c:86:
         30:c9:a5:ae:91:59:b7:86:e7:cf:58:fa:e9:13:9e:cb:a3:9a:
         29:58:21:f6:c4:71:3a:55:42:4e:25:5c:ce:af:f9:fc:ff:5e:
         92:37:bd:4e:b5:5f:0b:68:d6:80:43:40:d1:0d:83:16:33:49:
         d2:3d:4f:33:18:65:ad:ee:42:38:9d:bb:1b:89:b7:d5:00:c6:
         b9:45:b5:f0:1a:24:60:9d:ae:c8:46:9f:50:07:46:18:fa:d5:
         26:f5:69:66:f6:c8:98:50:bd:8d:33:b1:8c:1f:e3:8d:82:04:
         b7:78:41:32:a5:84:6b:00:cb:aa:d5:e9:b3:9b:21:b8:c8:7d:
         46:48:5b:a5:e8:13:dd:4c:4c:25:7d:46:58:1c:d2:35:42:bd:
         0f:62:e5:bd
-----BEGIN CERTIFICATE-----
MIIDYjCCAkqgAwIBAgIBATANBgkqhkiG9w0BAQsFADA2MQswCQYDVQQGEwJTRTEU
MBIGA1UECAwLVmFzdG1hbmxhbmQxETAPBgNVBAoMCHJvZGluZ2VuMB4XDTE1MDUw
OTEwMjEwOFoXDTE2MDUwODEwMjEwOFowNjELMAkGA1UEBhMCU0UxFDASBgNVBAgM
C1Zhc3RtYW5sYW5kMREwDwYDVQQKDAhyb2RpbmdlbjCCASIwDQYJKoZIhvcNAQEB
BQADggEPADCCAQoCggEBANOh+qw6ZpwFkknsMOlHa0/4LbBqnlj4WVXrABQS8GKI
8h529GR9d1T3WnmGid2fkHhI0MTjxkINjOKcd51G+NxGUp5s84ur7suaMnUyI7/i
1m5a/hp3SEAJtRF0R/7m2X/FzCmSdwXjK86HrjgsJDNbsfoAxlbNLe9fT/VdBudh
ftMsuCUL4rOvqDfwkqKtIo6j7i6YSKUSVi/0VUGfI2/CVJWqq/gOx32l8KkmoqdB
YYimU9lh6KoQ7AhHw5H9UG3u5Aqbvonbfsns/lWdSWe/HXVUWm98LdssIrqx62oU
xRLszqV06RnUhcLZh2yiIPpDny5WXOvCaAIeYS/p9l8CAwEAAaN7MHkwCQYDVR0T
BAIwADAsBglghkgBhvhCAQ0EHxYdT3BlblNTTCBHZW5lcmF0ZWQgQ2VydGlmaWNh
dGUwHQYDVR0OBBYEFJwNerT3eXzInqHOwNJenmiSVJRVMB8GA1UdIwQYMBaAFJe7
PDqsYp57vFj6yGaIa/+0Khh2MA0GCSqGSIb3DQEBCwUAA4IBAQAtImvsEKg3Ogda
BFtR3OyGdMTqURqQOl7G4jEpnrTgE/eAN1ddX/hTHD0d0/dMYaqUx9QL3v2/A9f+
ir2aYq+KP89YLhigqG40geVAq1iLVZRZCa5RqYCpsdhfYnM38jMLsX145DfWSqhr
XIYwyaWukVm3hufPWPrpE57Lo5opWCH2xHE6VUJOJVzOr/n8/16SN71OtV8LaNaA
Q0DRDYMWM0nSPU8zGGWt7kI4nbsbibfVAMa5RbXwGiRgna7IRp9QB0YY+tUm9Wlm
9siYUL2NM7GMH+ONggS3eEEypYRrAMuq1emzmyG4yH1GSFul6BPdTEwlfUZYHNI1
Qr0PYuW9
-----END CERTIFICATE-----
